target datalayout = "e-m:e-p270:32:32-p271:32:32-p272:64:64-i64:64-i128:128-f80:128-n8:16:32:64-S128"
target triple = "x86_64-pc-linux-gnu"

%struct.ggml_tallocr = type { ptr, ptr, i64, i64 }
%struct.ggml_tensor = type { i32, ptr, [4 x i64], [4 x i64], i32, [16 x i32], i32, [10 x ptr], ptr, i64, ptr, [64 x i8], ptr, [8 x i8] }

; Function Attrs: nounwind uwtable
define internal i64 @aligned_offset(ptr noundef %0, i64 noundef %1, i64 noundef %2) #0 {
  %4 = alloca ptr, align 8
  %5 = alloca i64, align 8
  %6 = alloca i64, align 8
  %7 = alloca i64, align 8
  store ptr %0, ptr %4, align 8, !tbaa !8
  store i64 %1, ptr %5, align 8, !tbaa !9
  store i64 %2, ptr %6, align 8, !tbaa !9
  call void @llvm.lifetime.start.p0(i64 8, ptr %7) #11
  %8 = load i64, ptr %6, align 8, !tbaa !9
  %9 = load ptr, ptr %4, align 8, !tbaa !8
  %10 = ptrtoint ptr %9 to i64
  %11 = load i64, ptr %5, align 8, !tbaa !9
  %12 = add i64 %10, %11
  %13 = load i64, ptr %6, align 8, !tbaa !9
  %14 = urem i64 %12, %13
  %15 = sub i64 %8, %14
  %16 = load i64, ptr %6, align 8, !tbaa !9
  %17 = urem i64 %15, %16
  store i64 %17, ptr %7, align 8, !tbaa !9
  %18 = load i64, ptr %5, align 8, !tbaa !9
  %19 = load i64, ptr %7, align 8, !tbaa !9
  %20 = add i64 %18, %19
  call void @llvm.lifetime.end.p0(i64 8, ptr %7) #11
  ret i64 %20
}

; Function Attrs: nounwind uwtable
define void @ggml_tallocr_new(ptr dead_on_unwind noalias writable sret(%struct.ggml_tallocr) align 8 %0, ptr noundef %1) #0 {
  %3 = alloca ptr, align 8
  %4 = alloca ptr, align 8
  %5 = alloca i64, align 8
  store ptr %1, ptr %3, align 8, !tbaa !3
  call void @llvm.lifetime.start.p0(i64 8, ptr %4) #11
  %6 = load ptr, ptr %3, align 8, !tbaa !3
  %7 = call ptr @ggml_backend_buffer_get_base(ptr noundef %6)
  store ptr %7, ptr %4, align 8, !tbaa !8
  call void @llvm.lifetime.start.p0(i64 8, ptr %5) #11
  %8 = load ptr, ptr %3, align 8, !tbaa !3
  %9 = call i64 @ggml_backend_buffer_get_alignment(ptr noundef %8)
  store i64 %9, ptr %5, align 8, !tbaa !9
  %10 = getelementptr inbounds nuw %struct.ggml_tallocr, ptr %0, i32 0, i32 0
  %11 = load ptr, ptr %3, align 8, !tbaa !3
  store ptr %11, ptr %10, align 8, !tbaa !11
  %12 = getelementptr inbounds nuw %struct.ggml_tallocr, ptr %0, i32 0, i32 1
  %13 = load ptr, ptr %4, align 8, !tbaa !8
  store ptr %13, ptr %12, align 8, !tbaa !13
  %14 = getelementptr inbounds nuw %struct.ggml_tallocr, ptr %0, i32 0, i32 2
  %15 = load i64, ptr %5, align 8, !tbaa !9
  store i64 %15, ptr %14, align 8, !tbaa !14
  %16 = getelementptr inbounds nuw %struct.ggml_tallocr, ptr %0, i32 0, i32 3
  %17 = load ptr, ptr %4, align 8, !tbaa !8
  %18 = load i64, ptr %5, align 8, !tbaa !9
  %19 = call i64 @aligned_offset(ptr noundef %17, i64 noundef 0, i64 noundef %18)
  store i64 %19, ptr %16, align 8, !tbaa !15
  call void @llvm.lifetime.end.p0(i64 8, ptr %5) #11
  call void @llvm.lifetime.end.p0(i64 8, ptr %4) #11
  ret void
}

; Function Attrs: nounwind uwtable
define internal zeroext i1 @alloc_tensor_range(ptr noundef %0, ptr noundef %1, ptr noundef %2, ptr noundef %3, i64 noundef %4, ptr noundef %5, ptr noundef %6) #0 {
  %8 = alloca i1, align 1
  %9 = alloca ptr, align 8
  %10 = alloca ptr, align 8
  %11 = alloca ptr, align 8
  %12 = alloca ptr, align 8
  %13 = alloca i64, align 8
  %14 = alloca ptr, align 8
  %15 = alloca ptr, align 8
  %16 = alloca ptr, align 8
  %17 = alloca i64, align 8
  %18 = alloca i32, align 4
  %19 = alloca %struct.ggml_tallocr, align 8
  %20 = alloca ptr, align 8
  store ptr %0, ptr %9, align 8, !tbaa !129
  store ptr %1, ptr %10, align 8, !tbaa !18
  store ptr %2, ptr %11, align 8, !tbaa !18
  store ptr %3, ptr %12, align 8, !tbaa !39
  store i64 %4, ptr %13, align 8, !tbaa !9
  store ptr %5, ptr %14, align 8, !tbaa !133
  store ptr %6, ptr %15, align 8, !tbaa !136
  call void @llvm.lifetime.start.p0(i64 8, ptr %16) #11
  %21 = load ptr, ptr %12, align 8, !tbaa !39
  %22 = load i64, ptr %13, align 8, !tbaa !9
  %23 = call ptr @ggml_backend_buft_alloc_buffer(ptr noundef %21, i64 noundef %22)
  store ptr %23, ptr %16, align 8, !tbaa !3
  %24 = load ptr, ptr %16, align 8, !tbaa !3
  %25 = icmp eq ptr %24, null
  br i1 %25, label %26, label %45

26:                                               ; preds = %7
  call void @llvm.lifetime.start.p0(i64 8, ptr %17) #11
  store i64 0, ptr %17, align 8, !tbaa !9
  br label %27

27:                                               ; preds = %39, %26
  %28 = load i64, ptr %17, align 8, !tbaa !9
  %29 = load ptr, ptr %15, align 8, !tbaa !136
  %30 = load i64, ptr %29, align 8, !tbaa !9
  %31 = icmp ult i64 %28, %30
  br i1 %31, label %33, label %32

32:                                               ; preds = %27
  call void @llvm.lifetime.end.p0(i64 8, ptr %17) #11
  br label %42

33:                                               ; preds = %27
  %34 = load ptr, ptr %14, align 8, !tbaa !133
  %35 = load ptr, ptr %34, align 8, !tbaa !131
  %36 = load i64, ptr %17, align 8, !tbaa !9
  %37 = getelementptr inbounds nuw ptr, ptr %35, i64 %36
  %38 = load ptr, ptr %37, align 8, !tbaa !3
  call void @ggml_backend_buffer_free(ptr noundef %38)
  br label %39

39:                                               ; preds = %33
  %40 = load i64, ptr %17, align 8, !tbaa !9
  %41 = add i64 %40, 1
  store i64 %41, ptr %17, align 8, !tbaa !9
  br label %27, !llvm.loop !138

42:                                               ; preds = %32
  %43 = load ptr, ptr %14, align 8, !tbaa !133
  %44 = load ptr, ptr %43, align 8, !tbaa !131
  call void @free(ptr noundef %44) #11
  store i1 false, ptr %8, align 1
  store i32 1, ptr %18, align 4
  br label %108

45:                                               ; preds = %7
  call void @llvm.lifetime.start.p0(i64 32, ptr %19) #11
  %46 = load ptr, ptr %16, align 8, !tbaa !3
  call void @ggml_tallocr_new(ptr dead_on_unwind writable sret(%struct.ggml_tallocr) align 8 %19, ptr noundef %46)
  call void @llvm.lifetime.start.p0(i64 8, ptr %20) #11
  %47 = load ptr, ptr %10, align 8, !tbaa !18
  store ptr %47, ptr %20, align 8, !tbaa !18
  br label %48

48:                                               ; preds = %88, %45
  %49 = load ptr, ptr %20, align 8, !tbaa !18
  %50 = load ptr, ptr %11, align 8, !tbaa !18
  %51 = icmp ne ptr %49, %50
  br i1 %51, label %53, label %52

52:                                               ; preds = %48
  store i32 5, ptr %18, align 4
  call void @llvm.lifetime.end.p0(i64 8, ptr %20) #11
  br label %92

53:                                               ; preds = %48
  %54 = load ptr, ptr %20, align 8, !tbaa !18
  %55 = getelementptr inbounds nuw %struct.ggml_tensor, ptr %54, i32 0, i32 10
  %56 = load ptr, ptr %55, align 8, !tbaa !77
  %57 = icmp eq ptr %56, null
  br i1 %57, label %58, label %74

58:                                               ; preds = %53
  %59 = load ptr, ptr %20, align 8, !tbaa !18
  %60 = getelementptr inbounds nuw %struct.ggml_tensor, ptr %59, i32 0, i32 8
  %61 = load ptr, ptr %60, align 8, !tbaa !75
  %62 = icmp eq ptr %61, null
  br i1 %62, label %63, label %65

63:                                               ; preds = %58
  %64 = load ptr, ptr %20, align 8, !tbaa !18
  call void @ggml_tallocr_alloc(ptr noundef %19, ptr noundef %64)
  br label %73

65:                                               ; preds = %58
  %66 = load ptr, ptr %20, align 8, !tbaa !18
  %67 = getelementptr inbounds nuw %struct.ggml_tensor, ptr %66, i32 0, i32 1
  %68 = load ptr, ptr %67, align 8, !tbaa !127
  %69 = icmp eq ptr %68, null
  br i1 %69, label %70, label %72

70:                                               ; preds = %65
  %71 = load ptr, ptr %20, align 8, !tbaa !18
  call void @ggml_backend_view_init(ptr noundef %71)
  br label %72

72:                                               ; preds = %70, %65
  br label %73

73:                                               ; preds = %72, %63
  br label %87

74:                                               ; preds = %53
  %75 = load ptr, ptr %20, align 8, !tbaa !18
  %76 = getelementptr inbounds nuw %struct.ggml_tensor, ptr %75, i32 0, i32 8
  %77 = load ptr, ptr %76, align 8, !tbaa !75
  %78 = icmp ne ptr %77, null
  br i1 %78, label %79, label %86

79:                                               ; preds = %74
  %80 = load ptr, ptr %20, align 8, !tbaa !18
  %81 = getelementptr inbounds nuw %struct.ggml_tensor, ptr %80, i32 0, i32 1
  %82 = load ptr, ptr %81, align 8, !tbaa !127
  %83 = icmp eq ptr %82, null
  br i1 %83, label %84, label %86

84:                                               ; preds = %79
  %85 = load ptr, ptr %20, align 8, !tbaa !18
  call void @ggml_backend_view_init(ptr noundef %85)
  br label %86

86:                                               ; preds = %84, %79, %74
  br label %87

87:                                               ; preds = %86, %73
  br label %88

88:                                               ; preds = %87
  %89 = load ptr, ptr %9, align 8, !tbaa !129
  %90 = load ptr, ptr %20, align 8, !tbaa !18
  %91 = call ptr @ggml_get_next_tensor(ptr noundef %89, ptr noundef %90)
  store ptr %91, ptr %20, align 8, !tbaa !18
  br label %48, !llvm.loop !139

92:                                               ; preds = %52
  %93 = load ptr, ptr %14, align 8, !tbaa !133
  %94 = load ptr, ptr %93, align 8, !tbaa !131
  %95 = load ptr, ptr %15, align 8, !tbaa !136
  %96 = load i64, ptr %95, align 8, !tbaa !9
  %97 = add i64 %96, 1
  %98 = mul i64 8, %97
  %99 = call ptr @realloc(ptr noundef %94, i64 noundef %98) #15
  %100 = load ptr, ptr %14, align 8, !tbaa !133
  store ptr %99, ptr %100, align 8, !tbaa !131
  %101 = load ptr, ptr %16, align 8, !tbaa !3
  %102 = load ptr, ptr %14, align 8, !tbaa !133
  %103 = load ptr, ptr %102, align 8, !tbaa !131
  %104 = load ptr, ptr %15, align 8, !tbaa !136
  %105 = load i64, ptr %104, align 8, !tbaa !9
  %106 = add i64 %105, 1
  store i64 %106, ptr %104, align 8, !tbaa !9
  %107 = getelementptr inbounds nuw ptr, ptr %103, i64 %105
  store ptr %101, ptr %107, align 8, !tbaa !3
  store i1 true, ptr %8, align 1
  store i32 1, ptr %18, align 4
  call void @llvm.lifetime.end.p0(i64 32, ptr %19) #11
  br label %108

108:                                              ; preds = %92, %42
  call void @llvm.lifetime.end.p0(i64 8, ptr %16) #11
  %109 = load i1, ptr %8, align 1
  ret i1 %109
}