; Function Attrs: nounwind uwtable
define internal fastcc noundef zeroext i1 @alloc_tensor_range(ptr noundef %0, ptr noundef %1, ptr noundef readnone %2, ptr noundef %3, i64 noundef range(i64 1, 0) %4, ptr noundef nonnull captures(none) %5, ptr noundef nonnull captures(none) %6) unnamed_addr #0 {
  %8 = alloca %struct.ggml_tallocr, align 8
  %9 = tail call ptr @ggml_backend_buft_alloc_buffer(ptr noundef %3, i64 noundef %4) #12
  %10 = icmp ne ptr %9, null
  br i1 %10, label %19, label %.preheader

.preheader:                                       ; preds = %7
  %11 = load i64, ptr %6, align 8, !tbaa !36
  %.not39 = icmp eq i64 %11, 0
  br i1 %.not39, label %._crit_edge, label %.lr.ph

._crit_edge:                                      ; preds = %.lr.ph, %.preheader
  %12 = load ptr, ptr %5, align 8, !tbaa !122
  tail call void @free(ptr noundef %12) #12
  br label %58

.lr.ph:                                           ; preds = %.preheader, %.lr.ph
  %.02933 = phi i64 [ %16, %.lr.ph ], [ 0, %.preheader ]
  %13 = load ptr, ptr %5, align 8, !tbaa !122
  %14 = getelementptr inbounds nuw ptr, ptr %13, i64 %.02933
  %15 = load ptr, ptr %14, align 8, !tbaa !31
  tail call void @ggml_backend_buffer_free(ptr noundef %15) #12
  %16 = add nuw i64 %.02933, 1
  %17 = load i64, ptr %6, align 8, !tbaa !36
  %18 = icmp ult i64 %16, %17
  br i1 %18, label %.lr.ph, label %._crit_edge, !llvm.loop !124

19:                                               ; preds = %7
  call void @llvm.lifetime.start.p0(i64 32, ptr nonnull %8) #12
  tail call void @llvm.experimental.noalias.scope.decl(metadata !125)
  %20 = tail call ptr @ggml_backend_buffer_get_base(ptr noundef nonnull %9) #12, !noalias !125
  %21 = tail call i64 @ggml_backend_buffer_get_alignment(ptr noundef nonnull %9) #12, !noalias !125
  store ptr %9, ptr %8, align 8, !tbaa !3, !alias.scope !125
  %22 = getelementptr inbounds nuw i8, ptr %8, i64 8
  store ptr %20, ptr %22, align 8, !tbaa !10, !alias.scope !125
  %23 = getelementptr inbounds nuw i8, ptr %8, i64 16
  store i64 %21, ptr %23, align 8, !tbaa !11, !alias.scope !125
  %24 = getelementptr inbounds nuw i8, ptr %8, i64 24
  %25 = ptrtoint ptr %20 to i64
  %26 = urem i64 %25, %21
  %27 = sub i64 %21, %26
  %28 = urem i64 %27, %21
  store i64 %28, ptr %24, align 8, !tbaa !12, !alias.scope !125
  %.not34 = icmp eq ptr %1, %2
  br i1 %.not34, label %._crit_edge38, label %.lr.ph37

._crit_edge38:                                    ; preds = %56, %19
  %29 = load ptr, ptr %5, align 8, !tbaa !122
  %30 = load i64, ptr %6, align 8, !tbaa !36
  %31 = shl i64 %30, 3
  %32 = add i64 %31, 8
  %33 = tail call ptr @realloc(ptr noundef %29, i64 noundef %32) #16
  store ptr %33, ptr %5, align 8, !tbaa !122
  %34 = load i64, ptr %6, align 8, !tbaa !36
  %35 = add i64 %34, 1
  store i64 %35, ptr %6, align 8, !tbaa !36
  %36 = getelementptr inbounds nuw ptr, ptr %33, i64 %34
  store ptr %9, ptr %36, align 8, !tbaa !31
  call void @llvm.lifetime.end.p0(i64 32, ptr nonnull %8) #12
  br label %58

.lr.ph37:                                         ; preds = %19, %56
  %.035 = phi ptr [ %57, %56 ], [ %1, %19 ]
  %37 = getelementptr inbounds nuw i8, ptr %.035, i64 248
  %38 = load ptr, ptr %37, align 8, !tbaa !96
  %39 = icmp eq ptr %38, null
  %40 = getelementptr inbounds nuw i8, ptr %.035, i64 232
  %41 = load ptr, ptr %40, align 8, !tbaa !63
  %42 = icmp eq ptr %41, null
  br i1 %39, label %43, label %50

43:                                               ; preds = %.lr.ph37
  br i1 %42, label %44, label %45

44:                                               ; preds = %43
  call void @ggml_tallocr_alloc(ptr noundef nonnull %8, ptr noundef nonnull %.035)
  br label %56

45:                                               ; preds = %43
  %46 = getelementptr inbounds nuw i8, ptr %.035, i64 8
  %47 = load ptr, ptr %46, align 8, !tbaa !117
  %48 = icmp eq ptr %47, null
  br i1 %48, label %49, label %56

49:                                               ; preds = %45
  tail call void @ggml_backend_view_init(ptr noundef nonnull %.035) #12
  br label %56

50:                                               ; preds = %.lr.ph37
  br i1 %42, label %56, label %51

51:                                               ; preds = %50
  %52 = getelementptr inbounds nuw i8, ptr %.035, i64 8
  %53 = load ptr, ptr %52, align 8, !tbaa !117
  %54 = icmp eq ptr %53, null
  br i1 %54, label %55, label %56

55:                                               ; preds = %51
  tail call void @ggml_backend_view_init(ptr noundef nonnull %.035) #12
  br label %56

56:                                               ; preds = %45, %49, %44, %55, %51, %50
  %57 = tail call ptr @ggml_get_next_tensor(ptr noundef %0, ptr noundef nonnull %.035) #12
  %.not = icmp eq ptr %57, %2
  br i1 %.not, label %._crit_edge38, label %.lr.ph37, !llvm.loop !128

58:                                               ; preds = %._crit_edge38, %._crit_edge
  ret i1 %10
}